; Function Attrs: nounwind uwtable
define internal fastcc void @_get_fns(ptr noundef nonnull %0, ptr noundef %1, ptr noundef readonly captures(address) %2) unnamed_addr #0 {
  %4 = alloca ptr, align 8
  call void @llvm.lifetime.start.p0(i64 8, ptr nonnull %4) #18
  store ptr null, ptr %4, align 8, !tbaa !164
  %5 = getelementptr inbounds nuw i8, ptr %2, i64 120
  %6 = getelementptr inbounds nuw i8, ptr %2, i64 240
  %.010 = load ptr, ptr %6, align 8, !tbaa !58
  %.not11 = icmp eq ptr %.010, %5
  br i1 %.not11, label %._crit_edge, label %.lr.ph

.lr.ph:                                           ; preds = %3, %.lr.ph
  %.012 = phi ptr [ %.0, %.lr.ph ], [ %.010, %3 ]
  %7 = getelementptr inbounds nuw i8, ptr %.012, i64 144
  %8 = load ptr, ptr %7, align 8, !tbaa !60
  %9 = call i32 @PMIx_Argv_append_nosize(ptr noundef nonnull %4, ptr noundef %8) #18
  %10 = getelementptr inbounds nuw i8, ptr %.012, i64 120
  %.0 = load ptr, ptr %10, align 8, !tbaa !58
  %.not = icmp eq ptr %.0, %5
  br i1 %.not, label %._crit_edge.loopexit, label %.lr.ph, !llvm.loop !165

._crit_edge.loopexit:                             ; preds = %.lr.ph
  %.pre = load ptr, ptr %4, align 8, !tbaa !164
  br label %._crit_edge

._crit_edge:                                      ; preds = %._crit_edge.loopexit, %3
  %11 = phi ptr [ %.pre, %._crit_edge.loopexit ], [ null, %3 ]
  %12 = call i32 @PMIx_Argv_count(ptr noundef %11) #18
  %13 = icmp sgt i32 %12, 0
  br i1 %13, label %14, label %46

14:                                               ; preds = %._crit_edge
  %15 = load i64, ptr getelementptr inbounds nuw (i8, ptr @pmix_infolist_t_class, i64 56), align 8, !tbaa !62
  %16 = call noalias noundef ptr @malloc(i64 noundef %15) #19
  %17 = load i32, ptr @pmix_class_init_epoch, align 4, !tbaa !3
  %18 = load i32, ptr getelementptr inbounds nuw (i8, ptr @pmix_infolist_t_class, i64 32), align 8, !tbaa !7
  %.not.i = icmp eq i32 %17, %18
  br i1 %.not.i, label %20, label %19

19:                                               ; preds = %14
  call void @pmix_class_initialize(ptr noundef nonnull @pmix_infolist_t_class) #18
  br label %20

20:                                               ; preds = %19, %14
  %.not22.i = icmp eq ptr %16, null
  br i1 %.not22.i, label %pmix_obj_new_tma.exit, label %21

21:                                               ; preds = %20
  %22 = call i32 @pthread_mutex_init(ptr noundef nonnull %16, ptr noundef null) #18
  %23 = getelementptr inbounds nuw i8, ptr %16, i64 40
  store ptr @pmix_infolist_t_class, ptr %23, align 8, !tbaa !13
  %24 = getelementptr inbounds nuw i8, ptr %16, i64 48
  store i32 1, ptr %24, align 8, !tbaa !16
  %25 = getelementptr inbounds nuw i8, ptr %16, i64 56
  %26 = getelementptr inbounds nuw i8, ptr %16, i64 96
  call void @llvm.memset.p0.i64(ptr noundef nonnull align 8 dereferenceable(32) %25, i8 0, i64 32, i1 false)
  call void @llvm.memset.p0.i64(ptr noundef nonnull align 8 dereferenceable(24) %26, i8 0, i64 24, i1 false)
  %27 = load ptr, ptr getelementptr inbounds nuw (i8, ptr @pmix_infolist_t_class, i64 40), align 8, !tbaa !17
  %28 = load ptr, ptr %27, align 8, !tbaa !18
  %.not6.i.i = icmp eq ptr %28, null
  br i1 %.not6.i.i, label %pmix_obj_new_tma.exit, label %.lr.ph.i.i

.lr.ph.i.i:                                       ; preds = %21, %.lr.ph.i.i
  %29 = phi ptr [ %31, %.lr.ph.i.i ], [ %28, %21 ]
  %.07.i.i = phi ptr [ %30, %.lr.ph.i.i ], [ %27, %21 ]
  call void %29(ptr noundef nonnull %16) #18
  %30 = getelementptr inbounds nuw i8, ptr %.07.i.i, i64 8
  %31 = load ptr, ptr %30, align 8, !tbaa !18
  %.not.i.i = icmp eq ptr %31, null
  br i1 %.not.i.i, label %pmix_obj_new_tma.exit, label %.lr.ph.i.i, !llvm.loop !19

pmix_obj_new_tma.exit:                            ; preds = %.lr.ph.i.i, %20, %21
  %32 = load ptr, ptr %4, align 8, !tbaa !164
  %33 = call ptr @PMIx_Argv_join(ptr noundef %32, i32 noundef 44) #18
  %34 = getelementptr inbounds nuw i8, ptr %16, i64 144
  %35 = call i32 @PMIx_Info_load(ptr noundef nonnull %34, ptr noundef %1, ptr noundef %33, i16 noundef zeroext 3) #18
  %36 = getelementptr inbounds nuw i8, ptr %0, i64 120
  %37 = getelementptr inbounds nuw i8, ptr %0, i64 248
  %38 = load ptr, ptr %37, align 8, !tbaa !63
  %39 = getelementptr inbounds nuw i8, ptr %16, i64 128
  store ptr %38, ptr %39, align 8, !tbaa !63
  %40 = getelementptr inbounds nuw i8, ptr %38, i64 120
  store volatile ptr %16, ptr %40, align 8, !tbaa !58
  %41 = getelementptr inbounds nuw i8, ptr %16, i64 120
  store ptr %36, ptr %41, align 8, !tbaa !58
  store ptr %16, ptr %37, align 8, !tbaa !63
  %42 = getelementptr inbounds nuw i8, ptr %0, i64 264
  %43 = load volatile i64, ptr %42, align 8, !tbaa !64
  %44 = add i64 %43, 1
  store volatile i64 %44, ptr %42, align 8, !tbaa !64
  %45 = load ptr, ptr %4, align 8, !tbaa !164
  call void @PMIx_Argv_free(ptr noundef %45) #18
  br label %46

46:                                               ; preds = %pmix_obj_new_tma.exit, %._crit_edge
  call void @llvm.lifetime.end.p0(i64 8, ptr nonnull %4) #18
  ret void
}